target datalayout = "e-m:e-p270:32:32-p271:32:32-p272:64:64-i64:64-i128:128-f80:128-n8:16:32:64-S128"
target triple = "x86_64-pc-linux-gnu"

%class.Block_Array = type { i32, ptr, ptr }
%class.Block_List = type <{ %class.Block_Array, i32, [4 x i8] }>
%class.Block = type { %class.CFGElement, %class.Node_List, %class.Block_Array, i32, i32, i32, ptr, ptr, i32, i32, i32, i32, i32, i32, i32, i32, i8, i32 }
%class.CFGElement = type { ptr, double }
%class.Node_List = type <{ %class.Node_Array, i32, [4 x i8] }>
%class.Node_Array = type { ptr, i32, ptr }
%class.Node = type <{ ptr, ptr, ptr, i32, i32, i32, i32, i32, i32, i32, [4 x i8] }>
%class.PhaseCFG = type { %class.Phase, ptr, ptr, %class.Block_List, i32, ptr, ptr, i8, ptr, %class.Block_Array, ptr, double, ptr, ptr }
%class.Phase = type { i32, ptr }

; Function Attrs: mustprogress nounwind uwtable
define linkonce_odr hidden noundef i64 @_Z10align_downImiTnNSt9enable_ifIXcvbsr3std11is_integralIT_EE5valueEiE4typeELi0EES1_S1_T0_(i64 noundef %0, i32 noundef %1) #1 comdat {
  %3 = alloca i64, align 8
  %4 = alloca i32, align 4
  %5 = alloca i64, align 8
  store i64 %0, ptr %3, align 8
  store i32 %1, ptr %4, align 4
  %6 = load i64, ptr %3, align 8
  %7 = load i32, ptr %4, align 4
  %8 = call noundef i32 @_ZL14alignment_maskIiTnNSt9enable_ifIXcvbsr3std11is_integralIT_EE5valueEiE4typeELi0EES1_S1_(i32 noundef %7)
  %9 = sext i32 %8 to i64
  %10 = xor i64 %9, -1
  %11 = and i64 %6, %10
  store i64 %11, ptr %5, align 8
  %12 = load i64, ptr %5, align 8
  ret i64 %12
}

; Function Attrs: mustprogress nounwind uwtable
define linkonce_odr hidden noundef i64 @_Z12checked_castImmET_T0_(i64 noundef %0) #1 comdat {
  %2 = alloca i64, align 8
  %3 = alloca i64, align 8
  store i64 %0, ptr %2, align 8
  %4 = load i64, ptr %2, align 8
  store i64 %4, ptr %3, align 8
  %5 = load i64, ptr %3, align 8
  ret i64 %5
}

; Function Attrs: mustprogress nounwind uwtable
define internal noundef i32 @_ZL14alignment_maskIiTnNSt9enable_ifIXcvbsr3std11is_integralIT_EE5valueEiE4typeELi0EES1_S1_(i32 noundef %0) #1 {
  %2 = alloca i32, align 4
  store i32 %0, ptr %2, align 4
  %3 = load i32, ptr %2, align 4
  %4 = sub nsw i32 %3, 1
  ret i32 %4
}

; Function Attrs: mustprogress nounwind uwtable
define linkonce_odr hidden noundef ptr @_ZNK10Node_ArrayixEj(ptr noundef nonnull align 8 dereferenceable(24) %0, i32 noundef %1) #1 comdat align 2 {
  %3 = alloca ptr, align 8
  %4 = alloca i32, align 4
  store ptr %0, ptr %3, align 8
  store i32 %1, ptr %4, align 4
  %5 = load ptr, ptr %3, align 8
  %6 = load i32, ptr %4, align 4
  %7 = getelementptr inbounds %class.Node_Array, ptr %5, i32 0, i32 1
  %8 = load i32, ptr %7, align 8
  %9 = icmp ult i32 %6, %8
  br i1 %9, label %10, label %17

10:                                               ; preds = %2
  %11 = getelementptr inbounds %class.Node_Array, ptr %5, i32 0, i32 2
  %12 = load ptr, ptr %11, align 8
  %13 = load i32, ptr %4, align 4
  %14 = zext i32 %13 to i64
  %15 = getelementptr inbounds ptr, ptr %12, i64 %14
  %16 = load ptr, ptr %15, align 8
  br label %18

17:                                               ; preds = %2
  br label %18

18:                                               ; preds = %17, %10
  %19 = phi ptr [ %16, %10 ], [ null, %17 ]
  ret ptr %19
}

; Function Attrs: mustprogress nounwind uwtable
define linkonce_odr hidden noundef i64 @_Z8align_upImiTnNSt9enable_ifIXcvbsr3std11is_integralIT_EE5valueEiE4typeELi0EES1_S1_T0_(i64 noundef %0, i32 noundef %1) #1 comdat {
  %3 = alloca i64, align 8
  %4 = alloca i32, align 4
  %5 = alloca i64, align 8
  store i64 %0, ptr %3, align 8
  store i32 %1, ptr %4, align 4
  %6 = load i64, ptr %3, align 8
  %7 = load i32, ptr %4, align 4
  %8 = call noundef i32 @_ZL14alignment_maskIiTnNSt9enable_ifIXcvbsr3std11is_integralIT_EE5valueEiE4typeELi0EES1_S1_(i32 noundef %7)
  %9 = sext i32 %8 to i64
  %10 = add i64 %6, %9
  %11 = call noundef i64 @_Z12checked_castImmET_T0_(i64 noundef %10)
  store i64 %11, ptr %5, align 8
  %12 = load i64, ptr %5, align 8
  %13 = load i32, ptr %4, align 4
  %14 = call noundef i64 @_Z10align_downImiTnNSt9enable_ifIXcvbsr3std11is_integralIT_EE5valueEiE4typeELi0EES1_S1_T0_(i64 noundef %12, i32 noundef %13)
  ret i64 %14
}

; Function Attrs: mustprogress nounwind uwtable
define linkonce_odr hidden void @_ZN4Copy20assert_byte_count_okEmm(i64 noundef %0, i64 noundef %1) #1 comdat align 2 {
  %3 = alloca i64, align 8
  %4 = alloca i64, align 8
  store i64 %0, ptr %3, align 8
  store i64 %1, ptr %4, align 8
  ret void
}

; Function Attrs: mustprogress nounwind uwtable
define linkonce_odr hidden void @_ZN4Copy16assert_params_okEPKvPvl(ptr noundef %0, ptr noundef %1, i64 noundef %2) #1 comdat align 2 {
  %4 = alloca ptr, align 8
  %5 = alloca ptr, align 8
  %6 = alloca i64, align 8
  store ptr %0, ptr %4, align 8
  store ptr %1, ptr %5, align 8
  store i64 %2, ptr %6, align 8
  ret void
}

; Function Attrs: mustprogress nounwind uwtable
define linkonce_odr hidden noundef ptr @_ZNK5Block8get_nodeEj(ptr noundef nonnull align 8 dereferenceable(144) %0, i32 noundef %1) #1 comdat align 2 {
  %3 = alloca ptr, align 8
  %4 = alloca i32, align 4
  store ptr %0, ptr %3, align 8
  store i32 %1, ptr %4, align 4
  %5 = load ptr, ptr %3, align 8
  %6 = getelementptr inbounds %class.Block, ptr %5, i32 0, i32 1
  %7 = load i32, ptr %4, align 4
  %8 = call noundef ptr @_ZNK10Node_ArrayixEj(ptr noundef nonnull align 8 dereferenceable(24) %6, i32 noundef %7)
  ret ptr %8
}

; Function Attrs: mustprogress nounwind uwtable
define linkonce_odr hidden noundef ptr @_ZN10Block_List3popEv(ptr noundef nonnull align 8 dereferenceable(28) %0) #1 comdat align 2 {
  %2 = alloca ptr, align 8
  store ptr %0, ptr %2, align 8
  %3 = load ptr, ptr %2, align 8
  %4 = getelementptr inbounds %class.Block_Array, ptr %3, i32 0, i32 2
  %5 = load ptr, ptr %4, align 8
  %6 = getelementptr inbounds %class.Block_List, ptr %3, i32 0, i32 1
  %7 = load i32, ptr %6, align 8
  %8 = add i32 %7, -1
  store i32 %8, ptr %6, align 8
  %9 = zext i32 %8 to i64
  %10 = getelementptr inbounds ptr, ptr %5, i64 %9
  %11 = load ptr, ptr %10, align 8
  ret ptr %11
}

; Function Attrs: mustprogress nounwind uwtable
define linkonce_odr hidden void @_ZN4Copy23conjoint_words_to_lowerEPKP12HeapWordImplPS1_m(ptr noundef %0, ptr noundef %1, i64 noundef %2) #1 comdat align 2 {
  %4 = alloca ptr, align 8
  %5 = alloca ptr, align 8
  %6 = alloca i64, align 8
  %7 = alloca i64, align 8
  store ptr %0, ptr %4, align 8
  store ptr %1, ptr %5, align 8
  store i64 %2, ptr %6, align 8
  %8 = load ptr, ptr %4, align 8
  %9 = load ptr, ptr %5, align 8
  call void @_ZN4Copy16assert_params_okEPKvPvl(ptr noundef %8, ptr noundef %9, i64 noundef 8)
  %10 = load i64, ptr %6, align 8
  call void @_ZN4Copy20assert_byte_count_okEmm(i64 noundef %10, i64 noundef 8)
  %11 = load i64, ptr %6, align 8
  %12 = call noundef i64 @_Z8align_upImiTnNSt9enable_ifIXcvbsr3std11is_integralIT_EE5valueEiE4typeELi0EES1_S1_T0_(i64 noundef %11, i32 noundef 8)
  %13 = lshr i64 %12, 3
  store i64 %13, ptr %7, align 8
  br label %14

14:                                               ; preds = %18, %3
  %15 = load i64, ptr %7, align 8
  %16 = add i64 %15, -1
  store i64 %16, ptr %7, align 8
  %17 = icmp ugt i64 %15, 0
  br i1 %17, label %18, label %24

18:                                               ; preds = %14
  %19 = load ptr, ptr %4, align 8
  %20 = getelementptr inbounds ptr, ptr %19, i32 1
  store ptr %20, ptr %4, align 8
  %21 = load ptr, ptr %19, align 8
  %22 = load ptr, ptr %5, align 8
  %23 = getelementptr inbounds ptr, ptr %22, i32 1
  store ptr %23, ptr %5, align 8
  store ptr %21, ptr %22, align 8
  br label %14, !llvm.loop !6

24:                                               ; preds = %14
  ret void
}

; Function Attrs: mustprogress nounwind uwtable
define linkonce_odr hidden noundef ptr @_ZNK4Node2inEj(ptr noundef nonnull align 8 dereferenceable(52) %0, i32 noundef %1) #1 comdat align 2 {
  %3 = alloca ptr, align 8
  %4 = alloca i32, align 4
  store ptr %0, ptr %3, align 8
  store i32 %1, ptr %4, align 4
  %5 = load ptr, ptr %3, align 8
  %6 = getelementptr inbounds %class.Node, ptr %5, i32 0, i32 1
  %7 = load ptr, ptr %6, align 8
  %8 = load i32, ptr %4, align 4
  %9 = zext i32 %8 to i64
  %10 = getelementptr inbounds ptr, ptr %7, i64 %9
  %11 = load ptr, ptr %10, align 8
  ret ptr %11
}

; Function Attrs: mustprogress nounwind uwtable
define linkonce_odr hidden noundef i32 @_ZNK4Node3reqEv(ptr noundef nonnull align 8 dereferenceable(52) %0) #1 comdat align 2 {
  %2 = alloca ptr, align 8
  store ptr %0, ptr %2, align 8
  %3 = load ptr, ptr %2, align 8
  %4 = getelementptr inbounds %class.Node, ptr %3, i32 0, i32 3
  %5 = load i32, ptr %4, align 8
  ret i32 %5
}

; Function Attrs: mustprogress nounwind uwtable
define linkonce_odr hidden noundef ptr @_ZNK5Block4headEv(ptr noundef nonnull align 8 dereferenceable(144) %0) #1 comdat align 2 {
  %2 = alloca ptr, align 8
  store ptr %0, ptr %2, align 8
  %3 = load ptr, ptr %2, align 8
  %4 = call noundef ptr @_ZNK5Block8get_nodeEj(ptr noundef nonnull align 8 dereferenceable(144) %3, i32 noundef 0)
  ret ptr %4
}

; Function Attrs: mustprogress nounwind uwtable
define linkonce_odr hidden noundef ptr @_ZNK11Block_ArrayixEj(ptr noundef nonnull align 8 dereferenceable(24) %0, i32 noundef %1) #1 comdat align 2 {
  %3 = alloca ptr, align 8
  %4 = alloca i32, align 4
  store ptr %0, ptr %3, align 8
  store i32 %1, ptr %4, align 4
  %5 = load ptr, ptr %3, align 8
  %6 = getelementptr inbounds %class.Block_Array, ptr %5, i32 0, i32 2
  %7 = load ptr, ptr %6, align 8
  %8 = load i32, ptr %4, align 4
  %9 = zext i32 %8 to i64
  %10 = getelementptr inbounds ptr, ptr %7, i64 %9
  %11 = load ptr, ptr %10, align 8
  ret ptr %11
}

; Function Attrs: mustprogress nounwind uwtable
define hidden void @_ZN10Block_List6removeEj(ptr noundef nonnull align 8 dereferenceable(28) %0, i32 noundef %1) #1 align 2 {
  %3 = alloca ptr, align 8
  %4 = alloca i32, align 4
  store ptr %0, ptr %3, align 8
  store i32 %1, ptr %4, align 4
  %5 = load ptr, ptr %3, align 8
  %6 = getelementptr inbounds %class.Block_Array, ptr %5, i32 0, i32 2
  %7 = load ptr, ptr %6, align 8
  %8 = load i32, ptr %4, align 4
  %9 = add i32 %8, 1
  %10 = zext i32 %9 to i64
  %11 = getelementptr inbounds ptr, ptr %7, i64 %10
  %12 = getelementptr inbounds %class.Block_Array, ptr %5, i32 0, i32 2
  %13 = load ptr, ptr %12, align 8
  %14 = load i32, ptr %4, align 4
  %15 = zext i32 %14 to i64
  %16 = getelementptr inbounds ptr, ptr %13, i64 %15
  %17 = getelementptr inbounds %class.Block_List, ptr %5, i32 0, i32 1
  %18 = load i32, ptr %17, align 8
  %19 = load i32, ptr %4, align 4
  %20 = sub i32 %18, %19
  %21 = sub i32 %20, 1
  %22 = zext i32 %21 to i64
  %23 = mul i64 %22, 8
  call void @_ZN4Copy23conjoint_words_to_lowerEPKP12HeapWordImplPS1_m(ptr noundef %11, ptr noundef %16, i64 noundef %23)
  %24 = call noundef ptr @_ZN10Block_List3popEv(ptr noundef nonnull align 8 dereferenceable(28) %5)
  ret void
}

; Function Attrs: mustprogress nounwind uwtable
define linkonce_odr hidden noundef ptr @_ZNK8PhaseCFG18get_block_for_nodeEPK4Node(ptr noundef nonnull align 8 dereferenceable(160) %0, ptr noundef %1) #1 comdat align 2 {
  %3 = alloca ptr, align 8
  %4 = alloca ptr, align 8
  store ptr %0, ptr %3, align 8
  store ptr %1, ptr %4, align 8
  %5 = load ptr, ptr %3, align 8
  %6 = getelementptr inbounds %class.PhaseCFG, ptr %5, i32 0, i32 9
  %7 = load ptr, ptr %4, align 8
  %8 = getelementptr inbounds %class.Node, ptr %7, i32 0, i32 7
  %9 = load i32, ptr %8, align 8
  %10 = call noundef ptr @_ZNK11Block_ArrayixEj(ptr noundef nonnull align 8 dereferenceable(24) %6, i32 noundef %9)
  ret ptr %10
}

; Function Attrs: mustprogress nounwind uwtable
define linkonce_odr hidden noundef ptr @_ZNK5Block4predEj(ptr noundef nonnull align 8 dereferenceable(144) %0, i32 noundef %1) #1 comdat align 2 {
  %3 = alloca ptr, align 8
  %4 = alloca i32, align 4
  store ptr %0, ptr %3, align 8
  store i32 %1, ptr %4, align 4
  %5 = load ptr, ptr %3, align 8
  %6 = call noundef ptr @_ZNK5Block4headEv(ptr noundef nonnull align 8 dereferenceable(144) %5)
  %7 = load i32, ptr %4, align 4
  %8 = call noundef ptr @_ZNK4Node2inEj(ptr noundef nonnull align 8 dereferenceable(52) %6, i32 noundef %7)
  ret ptr %8
}

; Function Attrs: mustprogress nounwind uwtable
define linkonce_odr hidden noundef i32 @_ZNK5Block9num_predsEv(ptr noundef nonnull align 8 dereferenceable(144) %0) #1 comdat align 2 {
  %2 = alloca ptr, align 8
  store ptr %0, ptr %2, align 8
  %3 = load ptr, ptr %2, align 8
  %4 = call noundef ptr @_ZNK5Block4headEv(ptr noundef nonnull align 8 dereferenceable(144) %3)
  %5 = call noundef i32 @_ZNK4Node3reqEv(ptr noundef nonnull align 8 dereferenceable(52) %4)
  ret i32 %5
}

; Function Attrs: mustprogress nounwind uwtable
define linkonce_odr hidden noundef i32 @_ZNK8PhaseCFG16number_of_blocksEv(ptr noundef nonnull align 8 dereferenceable(160) %0) #1 comdat align 2 {
  %2 = alloca ptr, align 8
  store ptr %0, ptr %2, align 8
  %3 = load ptr, ptr %2, align 8
  %4 = getelementptr inbounds %class.PhaseCFG, ptr %3, i32 0, i32 4
  %5 = load i32, ptr %4, align 8
  ret i32 %5
}

; Function Attrs: mustprogress nounwind uwtable
define linkonce_odr hidden noundef ptr @_ZNK8PhaseCFG9get_blockEj(ptr noundef nonnull align 8 dereferenceable(160) %0, i32 noundef %1) #1 comdat align 2 {
  %3 = alloca ptr, align 8
  %4 = alloca i32, align 4
  store ptr %0, ptr %3, align 8
  store i32 %1, ptr %4, align 4
  %5 = load ptr, ptr %3, align 8
  %6 = getelementptr inbounds %class.PhaseCFG, ptr %5, i32 0, i32 3
  %7 = load i32, ptr %4, align 4
  %8 = call noundef ptr @_ZNK11Block_ArrayixEj(ptr noundef nonnull align 8 dereferenceable(24) %6, i32 noundef %7)
  ret ptr %8
}

; Function Attrs: mustprogress nounwind uwtable
define hidden noundef zeroext i1 @_ZN8PhaseCFG12move_to_nextEP5Blockj(ptr noundef nonnull align 8 dereferenceable(160) %0, ptr noundef %1, i32 noundef %2) #1 align 2 {
  %4 = alloca i1, align 1
  %5 = alloca ptr, align 8
  %6 = alloca ptr, align 8
  %7 = alloca i32, align 4
  %8 = alloca i32, align 4
  %9 = alloca i32, align 4
  %10 = alloca ptr, align 8
  store ptr %0, ptr %5, align 8
  store ptr %1, ptr %6, align 8
  store i32 %2, ptr %7, align 4
  %11 = load ptr, ptr %5, align 8
  %12 = load ptr, ptr %6, align 8
  %13 = icmp eq ptr %12, null
  br i1 %13, label %14, label %15

14:                                               ; preds = %3
  store i1 false, ptr %4, align 1
  br label %79

15:                                               ; preds = %3
  %16 = load ptr, ptr %6, align 8
  %17 = getelementptr inbounds %class.Block, ptr %16, i32 0, i32 4
  %18 = load i32, ptr %17, align 4
  store i32 %18, ptr %8, align 4
  %19 = load i32, ptr %8, align 4
  %20 = load i32, ptr %7, align 4
  %21 = icmp ule i32 %19, %20
  br i1 %21, label %22, label %28

22:                                               ; preds = %15
  %23 = load i32, ptr %8, align 4
  %24 = call noundef ptr @_ZNK8PhaseCFG9get_blockEj(ptr noundef nonnull align 8 dereferenceable(160) %11, i32 noundef %23)
  %25 = load ptr, ptr %6, align 8
  %26 = icmp eq ptr %24, %25
  br i1 %26, label %27, label %28

27:                                               ; preds = %22
  store i1 false, ptr %4, align 1
  br label %79

28:                                               ; preds = %22, %15
  %29 = load i32, ptr %7, align 4
  %30 = add i32 %29, 1
  store i32 %30, ptr %8, align 4
  br label %31

31:                                               ; preds = %42, %28
  %32 = load i32, ptr %8, align 4
  %33 = call noundef i32 @_ZNK8PhaseCFG16number_of_blocksEv(ptr noundef nonnull align 8 dereferenceable(160) %11)
  %34 = icmp ult i32 %32, %33
  br i1 %34, label %35, label %40

35:                                               ; preds = %31
  %36 = load i32, ptr %8, align 4
  %37 = call noundef ptr @_ZNK8PhaseCFG9get_blockEj(ptr noundef nonnull align 8 dereferenceable(160) %11, i32 noundef %36)
  %38 = load ptr, ptr %6, align 8
  %39 = icmp ne ptr %37, %38
  br label %40

40:                                               ; preds = %35, %31
  %41 = phi i1 [ false, %31 ], [ %39, %35 ]
  br i1 %41, label %42, label %45

42:                                               ; preds = %40
  %43 = load i32, ptr %8, align 4
  %44 = add i32 %43, 1
  store i32 %44, ptr %8, align 4
  br label %31, !llvm.loop !24

45:                                               ; preds = %40
  store i32 1, ptr %9, align 4
  br label %46

46:                                               ; preds = %69, %45
  %47 = load i32, ptr %9, align 4
  %48 = load ptr, ptr %6, align 8
  %49 = call noundef i32 @_ZNK5Block9num_predsEv(ptr noundef nonnull align 8 dereferenceable(144) %48)
  %50 = icmp ult i32 %47, %49
  br i1 %50, label %51, label %72

51:                                               ; preds = %46
  %52 = load ptr, ptr %6, align 8
  %53 = load i32, ptr %9, align 4
  %54 = call noundef ptr @_ZNK5Block4predEj(ptr noundef nonnull align 8 dereferenceable(144) %52, i32 noundef %53)
  %55 = call noundef ptr @_ZNK8PhaseCFG18get_block_for_nodeEPK4Node(ptr noundef nonnull align 8 dereferenceable(160) %11, ptr noundef %54)
  store ptr %55, ptr %10, align 8
  %56 = load ptr, ptr %10, align 8
  %57 = load i32, ptr %8, align 4
  %58 = sub i32 %57, 1
  %59 = call noundef ptr @_ZNK8PhaseCFG9get_blockEj(ptr noundef nonnull align 8 dereferenceable(160) %11, i32 noundef %58)
  %60 = icmp eq ptr %56, %59
  br i1 %60, label %61, label %68

61:                                               ; preds = %51
  %62 = load ptr, ptr %10, align 8
  %63 = getelementptr inbounds %class.Block, ptr %62, i32 0, i32 3
  %64 = load i32, ptr %63, align 8
  %65 = icmp ne i32 %64, 1
  br i1 %65, label %66, label %67

66:                                               ; preds = %61
  store i1 false, ptr %4, align 1
  br label %79

67:                                               ; preds = %61
  br label %68

68:                                               ; preds = %67, %51
  br label %69

69:                                               ; preds = %68
  %70 = load i32, ptr %9, align 4
  %71 = add i32 %70, 1
  store i32 %71, ptr %9, align 4
  br label %46, !llvm.loop !25

72:                                               ; preds = %46
  %73 = getelementptr inbounds %class.PhaseCFG, ptr %11, i32 0, i32 3
  %74 = load i32, ptr %8, align 4
  call void @_ZN10Block_List6removeEj(ptr noundef nonnull align 8 dereferenceable(28) %73, i32 noundef %74)
  %75 = getelementptr inbounds %class.PhaseCFG, ptr %11, i32 0, i32 3
  %76 = load i32, ptr %7, align 4
  %77 = add i32 %76, 1
  %78 = load ptr, ptr %6, align 8
  call void @_ZN10Block_List6insertEjP5Block(ptr noundef nonnull align 8 dereferenceable(28) %75, i32 noundef %77, ptr noundef %78)
  store i1 true, ptr %4, align 1
  br label %79

79:                                               ; preds = %72, %66, %27, %14
  %80 = load i1, ptr %4, align 1
  ret i1 %80
}