; Function Attrs: mustprogress nounwind uwtable
define hidden noundef zeroext i1 @_ZN8PhaseCFG12move_to_nextEP5Blockj(ptr nocapture noundef nonnull align 8 dereferenceable(160) %0, ptr noundef %1, i32 noundef %2) local_unnamed_addr #0 align 2 {
  %4 = icmp eq ptr %1, null
  br i1 %4, label %.loopexit, label %5

5:                                                ; preds = %3
  %6 = getelementptr inbounds i8, ptr %1, i64 76
  %7 = load i32, ptr %6, align 4
  %.not = icmp ugt i32 %7, %2
  br i1 %.not, label %15, label %8

8:                                                ; preds = %5
  %9 = getelementptr inbounds i8, ptr %0, i64 48
  %10 = load ptr, ptr %9, align 8
  %11 = zext i32 %7 to i64
  %12 = getelementptr inbounds ptr, ptr %10, i64 %11
  %13 = load ptr, ptr %12, align 8
  %14 = icmp eq ptr %13, %1
  br i1 %14, label %.loopexit, label %15

15:                                               ; preds = %8, %5
  %16 = add i32 %2, 1
  %17 = getelementptr inbounds i8, ptr %0, i64 64
  %18 = load i32, ptr %17, align 8
  %19 = icmp ult i32 %16, %18
  br i1 %19, label %.lr.ph, label %.critedge

.lr.ph:                                           ; preds = %15
  %20 = getelementptr inbounds i8, ptr %0, i64 48
  %21 = load ptr, ptr %20, align 8
  %22 = zext i32 %16 to i64
  br label %23

23:                                               ; preds = %.lr.ph, %26
  %indvars.iv = phi i64 [ %22, %.lr.ph ], [ %indvars.iv.next, %26 ]
  %24 = getelementptr inbounds ptr, ptr %21, i64 %indvars.iv
  %25 = load ptr, ptr %24, align 8
  %.not28 = icmp eq ptr %25, %1
  br i1 %.not28, label %.critedge.loopexit.split.loop.exit42, label %26

26:                                               ; preds = %23
  %indvars.iv.next = add nuw nsw i64 %indvars.iv, 1
  %lftr.wideiv = trunc i64 %indvars.iv.next to i32
  %exitcond.not = icmp eq i32 %18, %lftr.wideiv
  br i1 %exitcond.not, label %.critedge, label %23, !llvm.loop !25

.critedge.loopexit.split.loop.exit42:             ; preds = %23
  %27 = trunc nuw i64 %indvars.iv to i32
  br label %.critedge

.critedge:                                        ; preds = %26, %.critedge.loopexit.split.loop.exit42, %15
  %.024.lcssa = phi i32 [ %16, %15 ], [ %27, %.critedge.loopexit.split.loop.exit42 ], [ %18, %26 ]
  %28 = getelementptr inbounds i8, ptr %1, i64 24
  %29 = load i32, ptr %28, align 8
  %.not.i.i = icmp ne i32 %29, 0
  tail call void @llvm.assume(i1 %.not.i.i)
  %30 = getelementptr inbounds i8, ptr %1, i64 32
  %31 = load ptr, ptr %30, align 8
  %32 = load ptr, ptr %31, align 8
  %33 = getelementptr inbounds i8, ptr %32, i64 24
  %34 = load i32, ptr %33, align 8
  %35 = icmp ugt i32 %34, 1
  br i1 %35, label %.lr.ph36, label %._crit_edge

.lr.ph36:                                         ; preds = %.critedge
  %36 = getelementptr inbounds i8, ptr %32, i64 8
  %37 = load ptr, ptr %36, align 8
  %38 = getelementptr inbounds i8, ptr %0, i64 120
  %39 = load ptr, ptr %38, align 8
  %40 = add i32 %.024.lcssa, -1
  %41 = getelementptr inbounds i8, ptr %0, i64 48
  %42 = load ptr, ptr %41, align 8
  %43 = zext i32 %40 to i64
  %44 = getelementptr inbounds ptr, ptr %42, i64 %43
  %45 = load ptr, ptr %44, align 8
  %wide.trip.count = zext i32 %34 to i64
  br label %46

46:                                               ; preds = %.lr.ph36, %58
  %indvars.iv38 = phi i64 [ 1, %.lr.ph36 ], [ %indvars.iv.next39, %58 ]
  %47 = getelementptr inbounds ptr, ptr %37, i64 %indvars.iv38
  %48 = load ptr, ptr %47, align 8
  %49 = getelementptr inbounds i8, ptr %48, i64 40
  %50 = load i32, ptr %49, align 8
  %51 = zext i32 %50 to i64
  %52 = getelementptr inbounds ptr, ptr %39, i64 %51
  %53 = load ptr, ptr %52, align 8
  %54 = icmp eq ptr %53, %45
  br i1 %54, label %55, label %58

55:                                               ; preds = %46
  %56 = getelementptr inbounds i8, ptr %53, i64 72
  %57 = load i32, ptr %56, align 8
  %.not29 = icmp eq i32 %57, 1
  br i1 %.not29, label %58, label %.loopexit

58:                                               ; preds = %46, %55
  %indvars.iv.next39 = add nuw nsw i64 %indvars.iv38, 1
  %exitcond41.not = icmp eq i64 %indvars.iv.next39, %wide.trip.count
  br i1 %exitcond41.not, label %._crit_edge, label %46, !llvm.loop !26

._crit_edge:                                      ; preds = %58, %.critedge
  %59 = getelementptr inbounds i8, ptr %0, i64 32
  %60 = getelementptr inbounds i8, ptr %0, i64 56
  %61 = load i32, ptr %60, align 8
  %62 = xor i32 %.024.lcssa, -1
  %63 = add i32 %61, %62
  %.not8.i.i = icmp eq i32 %63, 0
  br i1 %.not8.i.i, label %_ZN10Block_List6removeEj.exit, label %.lr.ph.preheader.i.i

.lr.ph.preheader.i.i:                             ; preds = %._crit_edge
  %64 = zext i32 %63 to i64
  %65 = getelementptr inbounds i8, ptr %0, i64 48
  %66 = load ptr, ptr %65, align 8
  %67 = zext i32 %.024.lcssa to i64
  %68 = getelementptr ptr, ptr %66, i64 %67
  %69 = add i32 %.024.lcssa, 1
  %70 = zext i32 %69 to i64
  %71 = getelementptr ptr, ptr %66, i64 %70
  br label %.lr.ph.i.i

.lr.ph.i.i:                                       ; preds = %.lr.ph.i.i, %.lr.ph.preheader.i.i
  %.011.i.i = phi i64 [ %72, %.lr.ph.i.i ], [ %64, %.lr.ph.preheader.i.i ]
  %.0610.i.i = phi ptr [ %73, %.lr.ph.i.i ], [ %71, %.lr.ph.preheader.i.i ]
  %.079.i.i = phi ptr [ %75, %.lr.ph.i.i ], [ %68, %.lr.ph.preheader.i.i ]
  %72 = add nsw i64 %.011.i.i, -1
  %73 = getelementptr inbounds i8, ptr %.0610.i.i, i64 8
  %74 = load ptr, ptr %.0610.i.i, align 8
  %75 = getelementptr inbounds i8, ptr %.079.i.i, i64 8
  store ptr %74, ptr %.079.i.i, align 8
  %.not.i.i31 = icmp eq i64 %72, 0
  br i1 %.not.i.i31, label %_ZN4Copy23conjoint_words_to_lowerEPKP12HeapWordImplPS1_m.exit.loopexit.i, label %.lr.ph.i.i, !llvm.loop !6

_ZN4Copy23conjoint_words_to_lowerEPKP12HeapWordImplPS1_m.exit.loopexit.i: ; preds = %.lr.ph.i.i
  %.pre.i = load i32, ptr %60, align 8
  br label %_ZN10Block_List6removeEj.exit

_ZN10Block_List6removeEj.exit:                    ; preds = %._crit_edge, %_ZN4Copy23conjoint_words_to_lowerEPKP12HeapWordImplPS1_m.exit.loopexit.i
  %76 = phi i32 [ %.pre.i, %_ZN4Copy23conjoint_words_to_lowerEPKP12HeapWordImplPS1_m.exit.loopexit.i ], [ %61, %._crit_edge ]
  %77 = add i32 %76, -1
  store i32 %77, ptr %60, align 8
  tail call void @_ZN10Block_List6insertEjP5Block(ptr noundef nonnull align 8 dereferenceable(28) %59, i32 noundef %16, ptr noundef nonnull %1)
  br label %.loopexit

.loopexit:                                        ; preds = %55, %8, %3, %_ZN10Block_List6removeEj.exit
  %.0 = phi i1 [ true, %_ZN10Block_List6removeEj.exit ], [ false, %3 ], [ false, %8 ], [ false, %55 ]
  ret i1 %.0
}